target datalayout = "e-m:e-p270:32:32-p271:32:32-p272:64:64-i64:64-i128:128-f80:128-n8:16:32:64-S128"
target triple = "x86_64-pc-linux-gnu"

%struct.formnode = type { i16, i16, i16, i32, i32, i32, i32, i16, i16, i16, i32, ptr, ptr, ptr, ptr, ptr, ptr, ptr, ptr, ptr, ptr, ptr }

; Function Attrs: nounwind uwtable
define internal i32 @Next_Page_Number(ptr noundef %0) #0 {
  %2 = alloca ptr, align 8
  store ptr %0, ptr %2, align 8, !tbaa !4
  %3 = load ptr, ptr %2, align 8, !tbaa !4
  %4 = getelementptr inbounds nuw %struct.formnode, ptr %3, i32 0, i32 9
  %5 = load i16, ptr %4, align 4, !tbaa !49
  %6 = sext i16 %5 to i32
  %7 = add nsw i32 %6, 1
  %8 = load ptr, ptr %2, align 8, !tbaa !4
  %9 = getelementptr inbounds nuw %struct.formnode, ptr %8, i32 0, i32 8
  %10 = load i16, ptr %9, align 2, !tbaa !117
  %11 = sext i16 %10 to i32
  %12 = srem i32 %7, %11
  ret i32 %12
}

; Function Attrs: nounwind uwtable
define internal i32 @PN_Next_Page(ptr noundef %0) #0 {
  %2 = alloca ptr, align 8
  store ptr %0, ptr %2, align 8, !tbaa !4
  %3 = load ptr, ptr %2, align 8, !tbaa !4
  %4 = load ptr, ptr %2, align 8, !tbaa !4
  %5 = call i32 @Next_Page_Number(ptr noundef %4)
  %6 = call i32 @_nc_Set_Form_Page(ptr noundef %3, i32 noundef %5, ptr noundef null)
  ret i32 %6
}