; Function Attrs: nounwind uwtable
define internal range(i32 -11, 1) i32 @PN_Next_Page(ptr noundef %0) #0 {
  %2 = getelementptr i8, ptr %0, i64 26
  %.val = load i16, ptr %2, align 2, !tbaa !108
  %3 = getelementptr i8, ptr %0, i64 28
  %.val2 = load i16, ptr %3, align 4, !tbaa !47
  %4 = sext i16 %.val2 to i32
  %5 = add nsw i32 %4, 1
  %6 = sext i16 %.val to i32
  %7 = srem i32 %5, %6
  %8 = tail call i32 @_nc_Set_Form_Page(ptr noundef %0, i32 noundef %7, ptr noundef null)
  ret i32 %8
}